; Function Attrs: nounwind uwtable
define hidden void @_glfwInitGamepadMappings() local_unnamed_addr #0 {
  %1 = tail call ptr @_glfw_calloc(i64 noundef 395, i64 noundef 245) #12
  store ptr %1, ptr getelementptr inbounds nuw (i8, ptr @_glfw, i64 133392), align 8, !tbaa !149
  br label %2

2:                                                ; preds = %0, %13
  %.03 = phi i64 [ 0, %0 ], [ %14, %13 ]
  %3 = load ptr, ptr getelementptr inbounds nuw (i8, ptr @_glfw, i64 133392), align 8, !tbaa !149
  %4 = load i32, ptr getelementptr inbounds nuw (i8, ptr @_glfw, i64 133400), align 8, !tbaa !150
  %5 = sext i32 %4 to i64
  %6 = getelementptr inbounds %struct._GLFWmapping, ptr %3, i64 %5
  %7 = getelementptr inbounds nuw [395 x ptr], ptr @_glfwDefaultMappings, i64 0, i64 %.03
  %8 = load ptr, ptr %7, align 8, !tbaa !151
  %9 = tail call fastcc i32 @parseMapping(ptr noundef %6, ptr noundef %8)
  %.not = icmp eq i32 %9, 0
  br i1 %.not, label %13, label %10

10:                                               ; preds = %2
  %11 = load i32, ptr getelementptr inbounds nuw (i8, ptr @_glfw, i64 133400), align 8, !tbaa !150
  %12 = add nsw i32 %11, 1
  store i32 %12, ptr getelementptr inbounds nuw (i8, ptr @_glfw, i64 133400), align 8, !tbaa !150
  br label %13

13:                                               ; preds = %2, %10
  %14 = add nuw nsw i64 %.03, 1
  %exitcond.not = icmp eq i64 %14, 395
  br i1 %exitcond.not, label %15, label %2

15:                                               ; preds = %13
  ret void
}